target datalayout = "e-m:e-p270:32:32-p271:32:32-p272:64:64-i64:64-i128:128-f80:128-n8:16:32:64-S128"
target triple = "x86_64-pc-linux-gnu"

%"struct.duckdb::LogicalType" = type { i8, i8, %"class.duckdb::shared_ptr" }
%"class.duckdb::shared_ptr" = type { %"class.std::shared_ptr" }
%"class.std::shared_ptr" = type { %"class.std::__shared_ptr" }
%"class.std::__shared_ptr" = type { ptr, %"class.std::__shared_count" }
%"class.std::__shared_count" = type { ptr }
%"class.duckdb::vector.24" = type { %"class.std::vector.25" }
%"class.std::vector.25" = type { %"struct.std::_Vector_base.26" }
%"struct.std::_Vector_base.26" = type { %"struct.std::_Vector_base<duckdb::LogicalType, std::allocator<duckdb::LogicalType>>::_Vector_impl" }
%"struct.std::_Vector_base<duckdb::LogicalType, std::allocator<duckdb::LogicalType>>::_Vector_impl" = type { %"struct.std::_Vector_base<duckdb::LogicalType, std::allocator<duckdb::LogicalType>>::_Vector_impl_data" }
%"struct.std::_Vector_base<duckdb::LogicalType, std::allocator<duckdb::LogicalType>>::_Vector_impl_data" = type { ptr, ptr, ptr }
%"class.duckdb::Value" = type { %"struct.duckdb::LogicalType", i8, %"union.duckdb::Value::Val", %"class.duckdb::shared_ptr.54" }
%"union.duckdb::Value::Val" = type { %"struct.duckdb::hugeint_t" }
%"struct.duckdb::hugeint_t" = type { i64, i64 }
%"class.duckdb::shared_ptr.54" = type { %"class.std::shared_ptr.55" }
%"class.std::shared_ptr.55" = type { %"class.std::__shared_ptr.56" }
%"class.std::__shared_ptr.56" = type { ptr, %"class.std::__shared_count" }

; Function Attrs: mustprogress uwtable
define internal void @_ZN6duckdbL16EnumLastFunctionERNS_9DataChunkERNS_15ExpressionStateERNS_6VectorE(ptr noundef nonnull align 8 dereferenceable(64) %0, ptr noundef nonnull align 8 dereferenceable(176) %1, ptr noundef nonnull align 8 dereferenceable(104) %2) #0 personality ptr @__gxx_personality_v0 {
  %4 = alloca ptr, align 8
  %5 = alloca ptr, align 8
  %6 = alloca ptr, align 8
  %7 = alloca %"class.duckdb::vector.24", align 8
  %8 = alloca i64, align 8
  %9 = alloca ptr, align 8
  %10 = alloca i32, align 4
  %11 = alloca ptr, align 8
  %12 = alloca %"class.duckdb::Value", align 8
  store ptr %0, ptr %4, align 8, !tbaa !66
  store ptr %1, ptr %5, align 8, !tbaa !68
  store ptr %2, ptr %6, align 8, !tbaa !70
  call void @llvm.lifetime.start.p0(i64 24, ptr %7) #17
  %13 = load ptr, ptr %4, align 8, !tbaa !66
  call void @_ZNK6duckdb9DataChunk8GetTypesEv(ptr dead_on_unwind writable sret(%"class.duckdb::vector.24") align 8 %7, ptr noundef nonnull align 8 dereferenceable(64) %13)
  call void @llvm.lifetime.start.p0(i64 8, ptr %8) #17
  %14 = invoke noundef nonnull align 8 dereferenceable(24) ptr @_ZN6duckdb6vectorINS_11LogicalTypeELb1EEixEm(ptr noundef nonnull align 8 dereferenceable(24) %7, i64 noundef 0)
          to label %15 unwind label %28

15:                                               ; preds = %3
  %16 = invoke noundef i64 @_ZN6duckdb8EnumType7GetSizeERKNS_11LogicalTypeE(ptr noundef nonnull align 8 dereferenceable(24) %14)
          to label %17 unwind label %28

17:                                               ; preds = %15
  store i64 %16, ptr %8, align 8, !tbaa !16
  call void @llvm.lifetime.start.p0(i64 8, ptr %11) #17
  %18 = invoke noundef nonnull align 8 dereferenceable(24) ptr @_ZN6duckdb6vectorINS_11LogicalTypeELb1EEixEm(ptr noundef nonnull align 8 dereferenceable(24) %7, i64 noundef 0)
          to label %19 unwind label %32

19:                                               ; preds = %17
  %20 = invoke noundef nonnull align 8 dereferenceable(104) ptr @_ZN6duckdb8EnumType20GetValuesInsertOrderERKNS_11LogicalTypeE(ptr noundef nonnull align 8 dereferenceable(24) %18)
          to label %21 unwind label %32

21:                                               ; preds = %19
  store ptr %20, ptr %11, align 8, !tbaa !70
  call void @llvm.lifetime.start.p0(i64 64, ptr %12) #17
  %22 = load ptr, ptr %11, align 8, !tbaa !70
  %23 = load i64, ptr %8, align 8, !tbaa !16
  %24 = sub i64 %23, 1
  invoke void @_ZNK6duckdb6Vector8GetValueEm(ptr dead_on_unwind writable sret(%"class.duckdb::Value") align 8 %12, ptr noundef nonnull align 8 dereferenceable(104) %22, i64 noundef %24)
          to label %25 unwind label %36

25:                                               ; preds = %21
  %26 = load ptr, ptr %6, align 8, !tbaa !70
  invoke void @_ZN6duckdb6Vector9ReferenceERKNS_5ValueE(ptr noundef nonnull align 8 dereferenceable(104) %26, ptr noundef nonnull align 8 dereferenceable(64) %12)
          to label %27 unwind label %40

27:                                               ; preds = %25
  call void @_ZN6duckdb5ValueD1Ev(ptr noundef nonnull align 8 dereferenceable(64) %12) #17
  call void @llvm.lifetime.end.p0(i64 64, ptr %12) #17
  call void @llvm.lifetime.end.p0(i64 8, ptr %11) #17
  call void @llvm.lifetime.end.p0(i64 8, ptr %8) #17
  call void @_ZNSt6vectorIN6duckdb11LogicalTypeESaIS1_EED2Ev(ptr noundef nonnull align 8 dereferenceable(24) %7) #17
  call void @llvm.lifetime.end.p0(i64 24, ptr %7) #17
  ret void

28:                                               ; preds = %15, %3
  %29 = landingpad { ptr, i32 }
          cleanup
  %30 = extractvalue { ptr, i32 } %29, 0
  store ptr %30, ptr %9, align 8
  %31 = extractvalue { ptr, i32 } %29, 1
  store i32 %31, ptr %10, align 4
  br label %46

32:                                               ; preds = %19, %17
  %33 = landingpad { ptr, i32 }
          cleanup
  %34 = extractvalue { ptr, i32 } %33, 0
  store ptr %34, ptr %9, align 8
  %35 = extractvalue { ptr, i32 } %33, 1
  store i32 %35, ptr %10, align 4
  br label %45

36:                                               ; preds = %21
  %37 = landingpad { ptr, i32 }
          cleanup
  %38 = extractvalue { ptr, i32 } %37, 0
  store ptr %38, ptr %9, align 8
  %39 = extractvalue { ptr, i32 } %37, 1
  store i32 %39, ptr %10, align 4
  br label %44

40:                                               ; preds = %25
  %41 = landingpad { ptr, i32 }
          cleanup
  %42 = extractvalue { ptr, i32 } %41, 0
  store ptr %42, ptr %9, align 8
  %43 = extractvalue { ptr, i32 } %41, 1
  store i32 %43, ptr %10, align 4
  call void @_ZN6duckdb5ValueD1Ev(ptr noundef nonnull align 8 dereferenceable(64) %12) #17
  br label %44

44:                                               ; preds = %40, %36
  call void @llvm.lifetime.end.p0(i64 64, ptr %12) #17
  br label %45

45:                                               ; preds = %44, %32
  call void @llvm.lifetime.end.p0(i64 8, ptr %11) #17
  br label %46

46:                                               ; preds = %45, %28
  call void @llvm.lifetime.end.p0(i64 8, ptr %8) #17
  call void @_ZNSt6vectorIN6duckdb11LogicalTypeESaIS1_EED2Ev(ptr noundef nonnull align 8 dereferenceable(24) %7) #17
  call void @llvm.lifetime.end.p0(i64 24, ptr %7) #17
  br label %47

47:                                               ; preds = %46
  %48 = load ptr, ptr %9, align 8
  %49 = load i32, ptr %10, align 4
  %50 = insertvalue { ptr, i32 } poison, ptr %48, 0
  %51 = insertvalue { ptr, i32 } %50, i32 %49, 1
  resume { ptr, i32 } %51
}