; Function Attrs: mustprogress uwtable
define internal void @_ZN6duckdbL16EnumLastFunctionERNS_9DataChunkERNS_15ExpressionStateERNS_6VectorE(ptr noundef nonnull align 8 dereferenceable(64) %0, ptr nonnull readnone align 8 captures(none) %1, ptr noundef nonnull align 8 dereferenceable(104) %2) #0 personality ptr @__gxx_personality_v0 {
  %4 = alloca %"class.duckdb::vector.24", align 8
  %5 = alloca %"class.duckdb::Value", align 8
  call void @llvm.lifetime.start.p0(i64 24, ptr nonnull %4) #16
  call void @_ZNK6duckdb9DataChunk8GetTypesEv(ptr dead_on_unwind nonnull writable sret(%"class.duckdb::vector.24") align 8 %4, ptr noundef nonnull align 8 dereferenceable(64) %0)
  %6 = invoke noundef nonnull align 8 dereferenceable(24) ptr @_ZN6duckdb6vectorINS_11LogicalTypeELb1EEixEm(ptr noundef nonnull align 8 dereferenceable(24) %4, i64 noundef 0)
          to label %7 unwind label %23

7:                                                ; preds = %3
  %8 = invoke noundef i64 @_ZN6duckdb8EnumType7GetSizeERKNS_11LogicalTypeE(ptr noundef nonnull align 8 dereferenceable(24) %6)
          to label %9 unwind label %23

9:                                                ; preds = %7
  %10 = invoke noundef nonnull align 8 dereferenceable(24) ptr @_ZN6duckdb6vectorINS_11LogicalTypeELb1EEixEm(ptr noundef nonnull align 8 dereferenceable(24) %4, i64 noundef 0)
          to label %11 unwind label %25

11:                                               ; preds = %9
  %12 = invoke noundef nonnull align 8 dereferenceable(104) ptr @_ZN6duckdb8EnumType20GetValuesInsertOrderERKNS_11LogicalTypeE(ptr noundef nonnull align 8 dereferenceable(24) %10)
          to label %13 unwind label %25

13:                                               ; preds = %11
  call void @llvm.lifetime.start.p0(i64 64, ptr nonnull %5) #16
  %14 = add i64 %8, -1
  invoke void @_ZNK6duckdb6Vector8GetValueEm(ptr dead_on_unwind nonnull writable sret(%"class.duckdb::Value") align 8 %5, ptr noundef nonnull align 8 dereferenceable(104) %12, i64 noundef %14)
          to label %15 unwind label %27

15:                                               ; preds = %13
  invoke void @_ZN6duckdb6Vector9ReferenceERKNS_5ValueE(ptr noundef nonnull align 8 dereferenceable(104) %2, ptr noundef nonnull align 8 dereferenceable(64) %5)
          to label %16 unwind label %29

16:                                               ; preds = %15
  call void @_ZN6duckdb5ValueD1Ev(ptr noundef nonnull align 8 dereferenceable(64) %5) #16
  call void @llvm.lifetime.end.p0(i64 64, ptr nonnull %5) #16
  %17 = load ptr, ptr %4, align 8, !tbaa !39
  %18 = getelementptr inbounds nuw i8, ptr %4, i64 8
  %19 = load ptr, ptr %18, align 8, !tbaa !43
  %.not4.i.i.i.i = icmp eq ptr %17, %19
  br i1 %.not4.i.i.i.i, label %_ZSt8_DestroyIPN6duckdb11LogicalTypeES1_EvT_S3_RSaIT0_E.exit.i, label %.lr.ph.i.i.i.i

.lr.ph.i.i.i.i:                                   ; preds = %16, %.lr.ph.i.i.i.i
  %.05.i.i.i.i = phi ptr [ %20, %.lr.ph.i.i.i.i ], [ %17, %16 ]
  call void @_ZN6duckdb11LogicalTypeD1Ev(ptr noundef nonnull align 8 dereferenceable(24) %.05.i.i.i.i) #16
  %20 = getelementptr inbounds nuw i8, ptr %.05.i.i.i.i, i64 24
  %.not.i.i.i.i = icmp eq ptr %20, %19
  br i1 %.not.i.i.i.i, label %_ZSt8_DestroyIPN6duckdb11LogicalTypeES1_EvT_S3_RSaIT0_E.exitthread-pre-split.i, label %.lr.ph.i.i.i.i, !llvm.loop !49

_ZSt8_DestroyIPN6duckdb11LogicalTypeES1_EvT_S3_RSaIT0_E.exitthread-pre-split.i: ; preds = %.lr.ph.i.i.i.i
  %.pr.i = load ptr, ptr %4, align 8, !tbaa !39
  br label %_ZSt8_DestroyIPN6duckdb11LogicalTypeES1_EvT_S3_RSaIT0_E.exit.i

_ZSt8_DestroyIPN6duckdb11LogicalTypeES1_EvT_S3_RSaIT0_E.exit.i: ; preds = %_ZSt8_DestroyIPN6duckdb11LogicalTypeES1_EvT_S3_RSaIT0_E.exitthread-pre-split.i, %16
  %21 = phi ptr [ %.pr.i, %_ZSt8_DestroyIPN6duckdb11LogicalTypeES1_EvT_S3_RSaIT0_E.exitthread-pre-split.i ], [ %17, %16 ]
  %.not.i.i.i = icmp eq ptr %21, null
  br i1 %.not.i.i.i, label %_ZNSt6vectorIN6duckdb11LogicalTypeESaIS1_EED2Ev.exit, label %22

22:                                               ; preds = %_ZSt8_DestroyIPN6duckdb11LogicalTypeES1_EvT_S3_RSaIT0_E.exit.i
  call void @_ZdlPv(ptr noundef nonnull %21) #18
  br label %_ZNSt6vectorIN6duckdb11LogicalTypeESaIS1_EED2Ev.exit

_ZNSt6vectorIN6duckdb11LogicalTypeESaIS1_EED2Ev.exit: ; preds = %_ZSt8_DestroyIPN6duckdb11LogicalTypeES1_EvT_S3_RSaIT0_E.exit.i, %22
  call void @llvm.lifetime.end.p0(i64 24, ptr nonnull %4) #16
  ret void

23:                                               ; preds = %7, %3
  %24 = landingpad { ptr, i32 }
          cleanup
  br label %32

25:                                               ; preds = %11, %9
  %26 = landingpad { ptr, i32 }
          cleanup
  br label %32

27:                                               ; preds = %13
  %28 = landingpad { ptr, i32 }
          cleanup
  br label %31

29:                                               ; preds = %15
  %30 = landingpad { ptr, i32 }
          cleanup
  call void @_ZN6duckdb5ValueD1Ev(ptr noundef nonnull align 8 dereferenceable(64) %5) #16
  br label %31

31:                                               ; preds = %29, %27
  %.pn = phi { ptr, i32 } [ %30, %29 ], [ %28, %27 ]
  call void @llvm.lifetime.end.p0(i64 64, ptr nonnull %5) #16
  br label %32

32:                                               ; preds = %25, %31, %23
  %.pn.pn.pn = phi { ptr, i32 } [ %24, %23 ], [ %.pn, %31 ], [ %26, %25 ]
  call void @_ZNSt6vectorIN6duckdb11LogicalTypeESaIS1_EED2Ev(ptr noundef nonnull align 8 dereferenceable(24) %4) #16
  call void @llvm.lifetime.end.p0(i64 24, ptr nonnull %4) #16
  resume { ptr, i32 } %.pn.pn.pn
}